EXPORTS 
	?$TSS0@?1???R<lambda_3d61c9d3898220ff554174fd14d7d6ed>@@QBE?AVQString@@XZ@4HA 	 DATA
	?$TSS0@?1???R<lambda_5ca0559efcfe24fed4955dbffbdfbe87>@@QBE?AVQString@@XZ@4HA 	 DATA
	?$TSS0@?1??qt_metatype_id@?$QMetaTypeId@V?$QList@VQSslError@@@@@@SAHXZ@4HA 	 DATA
	?$TSS0@?1??qt_metatype_id@?$QMetaTypeId@W4NetworkError@QNetworkReply@@@@SAHXZ@4HA 	 DATA
	?$TSS0@?1??types@?$ConnectionTypes@U?$List@ABV?$QList@VQSslError@@@@@QtPrivate@@$00@QtPrivate@@SAPBHXZ@4HA 	 DATA
	?$TSS0@?1??types@?$ConnectionTypes@U?$List@W4NetworkError@QNetworkReply@@@QtPrivate@@$00@QtPrivate@@SAPBHXZ@4HA 	 DATA
	??_R0?AVPluginDataAPI@@@8 	 DATA
	??_R0?AVPluginNetworkHelper@@@8 	 DATA
	??_R0?AVQObject@@@8 	 DATA
	?metatype_id@?1??qt_metatype_id@?$QMetaTypeId@V?$QList@VQSslError@@@@@@SAHXZ@4V?$QBasicAtomicInteger@H@@A 	 DATA
	?metatype_id@?1??qt_metatype_id@?$QMetaTypeId@W4NetworkError@QNetworkReply@@@@SAHXZ@4V?$QBasicAtomicInteger@H@@A 	 DATA
	?qstring_literal@?1???R<lambda_3d61c9d3898220ff554174fd14d7d6ed>@@QBE?AVQString@@XZ@4U?$QStaticStringData@$0BL@@@B 	 DATA
	?qstring_literal@?1???R<lambda_5ca0559efcfe24fed4955dbffbdfbe87>@@QBE?AVQString@@XZ@4U?$QStaticStringData@$0BB@@@B 	 DATA
	?staticMetaObject@PluginDataAPI@@2UQMetaObject@@B 	 DATA
	?staticMetaObject@PluginNetworkHelper@@2UQMetaObject@@B 	 DATA
	?t@?1??types@?$ConnectionTypes@U?$List@ABV?$QList@VQSslError@@@@@QtPrivate@@$00@QtPrivate@@SAPBHXZ@4QBHB 	 DATA
	?t@?1??types@?$ConnectionTypes@U?$List@W4NetworkError@QNetworkReply@@@QtPrivate@@$00@QtPrivate@@SAPBHXZ@4QBHB 	 DATA
	??$?0$$V@?$_Compressed_pair@V?$allocator@D@std@@V?$_String_val@U?$_Simple_types@D@std@@@2@$00@std@@QAE@U_Zero_then_variadic_args_t@1@@Z
	??$?0D@?$allocator@U_Container_proxy@std@@@std@@QAE@ABV?$allocator@D@1@@Z
	??$?0U?$_List_node@V?$basic_string@DU?$char_traits@D@std@@V?$allocator@D@2@@std@@PAX@std@@@?$allocator@U_Container_proxy@std@@@std@@QAE@ABV?$allocator@U?$_List_node@V?$basic_string@DU?$char_traits@D@std@@V?$allocator@D@2@@std@@PAX@std@@@1@@Z
	??$?0V?$allocator@D@std@@$$V@?$_Compressed_pair@V?$allocator@D@std@@V?$_String_val@U?$_Simple_types@D@std@@@2@$00@std@@QAE@U_One_then_variadic_args_t@1@$$QAV?$allocator@D@1@@Z
	??$?0V?$allocator@D@std@@X@?$_String_alloc@U?$_String_base_types@DV?$allocator@D@std@@@std@@@std@@QAE@$$QAV?$allocator@D@1@@Z
	??$?0VQObject@@@?$QWeakPointer@VQObject@@@@AAE@PAVQObject@@_N@Z
	??$?CVConfig@linphone@@$0A@@?$shared_ptr@VConfig@linphone@@@std@@QBEPAVConfig@linphone@@XZ
	??$_Allocate@$07U_Default_allocate_traits@std@@$0A@@std@@YAPAXI@Z
	??$_Allocate_manually_vector_aligned@U_Default_allocate_traits@std@@@std@@YAPAXI@Z
	??$_Convert_size@I@std@@YAII@Z
	??$_Deallocate@$07$0A@@std@@YAXPAXI@Z
	??$_Deallocate_plain@V?$allocator@U_Container_proxy@std@@@std@@$0A@@std@@YAXAAV?$allocator@U_Container_proxy@std@@@0@QAU_Container_proxy@0@@Z
	??$_Freenode0@V?$allocator@U?$_List_node@V?$basic_string@DU?$char_traits@D@std@@V?$allocator@D@2@@std@@PAX@std@@@std@@@?$_List_node@V?$basic_string@DU?$char_traits@D@std@@V?$allocator@D@2@@std@@PAX@std@@SAXAAV?$allocator@U?$_List_node@V?$basic_string@DU?$char_traits@D@std@@V?$allocator@D@2@@std@@PAX@std@@@1@PAU01@@Z
	??$_Get_size_of_n@$00@std@@YAII@Z
	??$_Get_size_of_n@$07@std@@YAII@Z
	??$_Max_value@I@std@@YAABIABI0@Z
	??$_Min_value@I@std@@YAABIABI0@Z
	??$_Reallocate_for@V<lambda_9366063389c5f42a00a5088cf24e69de>@@PBD@?$basic_string@DU?$char_traits@D@std@@V?$allocator@D@2@@std@@QAEAAV01@IV<lambda_9366063389c5f42a00a5088cf24e69de>@@PBD@Z
	??$_Unfancy@D@std@@YAPADPAD@Z
	??$_Unfancy@U_Container_proxy@std@@@std@@YAPAU_Container_proxy@0@PAU10@@Z
	??$addressof@$$CBV?$QMap@VQString@@VQVariant@@@@@std@@YAPBV?$QMap@VQString@@VQVariant@@@@ABV1@@Z
	??$addressof@$$CBVQByteArray@@@std@@YAPBVQByteArray@@ABV1@@Z
	??$addressof@$$CBVQString@@@std@@YAPBVQString@@ABV1@@Z
	??$addressof@$$CBW4PluginCapability@PluginDataAPI@@@std@@YAPBW4PluginCapability@PluginDataAPI@@ABW412@@Z
	??$addressof@$$CBW4QtMsgType@@@std@@YAPBW4QtMsgType@@ABW41@@Z
	??$addressof@PAD@std@@YAPAPADAAPAD@Z
	??$addressof@PAU?$_List_node@V?$basic_string@DU?$char_traits@D@std@@V?$allocator@D@2@@std@@PAX@std@@@std@@YAPAPAU?$_List_node@V?$basic_string@DU?$char_traits@D@std@@V?$allocator@D@2@@std@@PAX@0@AAPAU10@@Z
	??$addressof@V?$QVector@V?$QMultiMap@VQString@@V1@@@@@@std@@YAPAV?$QVector@V?$QMultiMap@VQString@@V1@@@@@AAV1@@Z
	??$addressof@V?$_String_val@U?$_Simple_types@D@std@@@std@@@std@@YAPAV?$_String_val@U?$_Simple_types@D@std@@@0@AAV10@@Z
	??$addressof@V?$basic_string@DU?$char_traits@D@std@@V?$allocator@D@2@@std@@@std@@YAPAV?$basic_string@DU?$char_traits@D@std@@V?$allocator@D@2@@0@AAV10@@Z
	??$assign@VQObject@@@?$QWeakPointer@VQObject@@@@AAEAAV0@PAVQObject@@@Z
	??$call@U?$List@$$V@QtPrivate@@X@?$FunctionPointer@P8PluginNetworkHelper@@AEXXZ@QtPrivate@@SAXP8PluginNetworkHelper@@AEXXZPAV2@PAPAX@Z
	??$call@U?$List@ABV?$QList@VQSslError@@@@@QtPrivate@@X@?$FunctionPointer@P8PluginNetworkHelper@@AEXABV?$QList@VQSslError@@@@@Z@QtPrivate@@SAXP8PluginNetworkHelper@@AEXABV?$QList@VQSslError@@@@@ZPAV2@PAPAX@Z
	??$call@U?$List@W4NetworkError@QNetworkReply@@@QtPrivate@@X@?$FunctionPointer@P8PluginNetworkHelper@@AEXW4NetworkError@QNetworkReply@@@Z@QtPrivate@@SAXP8PluginNetworkHelper@@AEXW4NetworkError@QNetworkReply@@@ZPAV2@PAPAX@Z
	??$callDestructorIfNecessary@V?$QMap@VQString@@VQVariant@@@@@QMapNodeBase@@SAXAAV?$QMap@VQString@@VQVariant@@@@@Z
	??$callDestructorIfNecessary@VQString@@@QMapNodeBase@@SAXAAVQString@@@Z
	??$callDestructorIfNecessary@VQVariant@@@QMapNodeBase@@SAXAAVQVariant@@@Z
	??$callDestructorIfNecessary@W4PluginCapability@PluginDataAPI@@@QMapNodeBase@@SAXAAW4PluginCapability@PluginDataAPI@@@Z
	??$connect@P8QIODevice@@AEXXZP8PluginNetworkHelper@@AEXXZ@QObject@@SA?AVConnection@QMetaObject@@PBVQIODevice@@P83@AEXXZPBVPluginNetworkHelper@@P84@AEXXZW4ConnectionType@Qt@@@Z
	??$connect@P8QNetworkReply@@AEXABV?$QList@VQSslError@@@@@ZP8PluginNetworkHelper@@AEX0@Z@QObject@@SA?AVConnection@QMetaObject@@PBVQNetworkReply@@P83@AEXABV?$QList@VQSslError@@@@@ZPBVPluginNetworkHelper@@P85@AEX1@ZW4ConnectionType@Qt@@@Z
	??$connect@P8QNetworkReply@@AEXW4NetworkError@1@@ZP8PluginNetworkHelper@@AEX0@Z@QObject@@SA?AVConnection@QMetaObject@@PBVQNetworkReply@@P83@AEXW4NetworkError@3@@ZPBVPluginNetworkHelper@@P85@AEX1@ZW4ConnectionType@Qt@@@Z
	??$connect@P8QNetworkReply@@AEXXZP8PluginNetworkHelper@@AEXXZ@QObject@@SA?AVConnection@QMetaObject@@PBVQNetworkReply@@P83@AEXXZPBVPluginNetworkHelper@@P84@AEXXZW4ConnectionType@Qt@@@Z
	??$construct@PADABQAD@?$_Default_allocator_traits@V?$allocator@D@std@@@std@@SAXAAV?$allocator@D@1@QAPADABQAD@Z
	??$construct@U_Container_proxy@std@@U12@@?$_Default_allocator_traits@V?$allocator@U_Container_proxy@std@@@std@@@std@@SAXAAV?$allocator@U_Container_proxy@std@@@1@QAU_Container_proxy@1@$$QAU31@@Z
	??$deref@H@?$QAtomicOps@H@@SA_NAAU?$atomic@H@std@@@Z
	??$destroy@PAD@?$_Default_allocator_traits@V?$allocator@D@std@@@std@@SAXAAV?$allocator@D@1@QAPAD@Z
	??$destroy@PAU?$_List_node@V?$basic_string@DU?$char_traits@D@std@@V?$allocator@D@2@@std@@PAX@std@@@?$_Default_allocator_traits@V?$allocator@U?$_List_node@V?$basic_string@DU?$char_traits@D@std@@V?$allocator@D@2@@std@@PAX@std@@@std@@@std@@SAXAAV?$allocator@U?$_List_node@V?$basic_string@DU?$char_traits@D@std@@V?$allocator@D@2@@std@@PAX@std@@@1@QAPAU?$_List_node@V?$basic_string@DU?$char_traits@D@std@@V?$allocator@D@2@@std@@PAX@1@@Z
	??$destroy@U_Container_proxy@std@@@?$_Default_allocator_traits@V?$allocator@U_Container_proxy@std@@@std@@@std@@SAXAAV?$allocator@U_Container_proxy@std@@@1@QAU_Container_proxy@1@@Z
	??$destroy@V?$basic_string@DU?$char_traits@D@std@@V?$allocator@D@2@@std@@@?$_Default_allocator_traits@V?$allocator@U?$_List_node@V?$basic_string@DU?$char_traits@D@std@@V?$allocator@D@2@@std@@PAX@std@@@std@@@std@@SAXAAV?$allocator@U?$_List_node@V?$basic_string@DU?$char_traits@D@std@@V?$allocator@D@2@@std@@PAX@std@@@1@QAV?$basic_string@DU?$char_traits@D@std@@V?$allocator@D@2@@1@@Z
	??$forward@ABQAD@std@@YAABQADABQAD@Z
	??$forward@U_Container_proxy@std@@@std@@YA$$QAU_Container_proxy@0@AAU10@@Z
	??$forward@V?$allocator@D@std@@@std@@YA$$QAV?$allocator@D@0@AAV10@@Z
	??$load@H@?$QAtomicOps@H@@SAHABU?$atomic@H@std@@@Z
	??$loadAcquire@H@?$QAtomicOps@H@@SAHABU?$atomic@H@std@@@Z
	??$move@AAPAU?$QMapData@VQString@@VQVariant@@@@@std@@YA$$QAPAU?$QMapData@VQString@@VQVariant@@@@AAPAU1@@Z
	??$move@AAPAUExternalRefCountData@QtSharedPointer@@@std@@YA$$QAPAUExternalRefCountData@QtSharedPointer@@AAPAU12@@Z
	??$move@AAPAVQObject@@@std@@YA$$QAPAVQObject@@AAPAV1@@Z
	??$move@AAV?$QWeakPointer@VQObject@@@@@std@@YA$$QAV?$QWeakPointer@VQObject@@@@AAV1@@Z
	??$move@AAVQString@@@std@@YA$$QAVQString@@AAV1@@Z
	??$of@XVQNetworkReply@@@?$QNonConstOverload@W4NetworkError@QNetworkReply@@@@SAP8QNetworkReply@@AEXW4NetworkError@1@@ZP81@AEX0@Z@Z
	??$qMapLessThanKey@VQString@@@@YA_NABVQString@@0@Z
	??$qMapLessThanKey@W4PluginCapability@PluginDataAPI@@@@YA_NABW4PluginCapability@PluginDataAPI@@0@Z
	??$qRegisterMetaType@V?$QList@VQSslError@@@@@@YAHPBDPAV?$QList@VQSslError@@@@W4DefinedType@?$MetaTypeDefinedHelper@V?$QList@VQSslError@@@@$00@QtPrivate@@@Z
	??$qRegisterMetaType@W4NetworkError@QNetworkReply@@@@YAHPBDPAW4NetworkError@QNetworkReply@@W4DefinedType@?$MetaTypeDefinedHelper@W4NetworkError@QNetworkReply@@$00@QtPrivate@@@Z
	??$qRegisterNormalizedMetaType@V?$QList@VQSslError@@@@@@YAHABVQByteArray@@PAV?$QList@VQSslError@@@@W4DefinedType@?$MetaTypeDefinedHelper@V?$QList@VQSslError@@@@$00@QtPrivate@@@Z
	??$qRegisterNormalizedMetaType@W4NetworkError@QNetworkReply@@@@YAHABVQByteArray@@PAW4NetworkError@QNetworkReply@@W4DefinedType@?$MetaTypeDefinedHelper@W4NetworkError@QNetworkReply@@$00@QtPrivate@@@Z
	??$qSwap@PAU?$QMapData@VQString@@VQVariant@@@@@@YAXAAPAU?$QMapData@VQString@@VQVariant@@@@0@Z
	??$qSwap@PAUExternalRefCountData@QtSharedPointer@@@@YAXAAPAUExternalRefCountData@QtSharedPointer@@0@Z
	??$qSwap@PAVQObject@@@@YAXAAPAVQObject@@0@Z
	??$ref@H@?$QAtomicOps@H@@SA_NAAU?$atomic@H@std@@@Z
	??$storeRelease@H@?$QAtomicOps@H@@SAXAAU?$atomic@H@std@@H@Z
	??$swap@PAU?$QMapData@VQString@@VQVariant@@@@X@std@@YAXAAPAU?$QMapData@VQString@@VQVariant@@@@0@Z
	??$swap@PAUExternalRefCountData@QtSharedPointer@@X@std@@YAXAAPAUExternalRefCountData@QtSharedPointer@@0@Z
	??$swap@PAVQObject@@X@std@@YAXAAPAVQObject@@0@Z
	??0?$ApplyReturnValue@X@QtPrivate@@QAE@PAX@Z
	??0?$QAtomicInteger@H@@QAE@H@Z
	??0?$QBasicAtomicInteger@H@@QAE@H@Z
	??0?$QFlags@W4AllocationOption@QArrayData@@@@QAE@W4AllocationOption@QArrayData@@@Z
	??0?$QFlags@W4ComponentFormattingOption@QUrl@@@@QAE@W4ComponentFormattingOption@QUrl@@@Z
	??0?$QFlags@W4LoadHint@QLibrary@@@@QAE@PQPrivate@0@H@Z
	??0?$QFlags@W4TypeFlag@QMetaType@@@@QAE@VQFlag@@@Z
	??0?$QList@VQSslError@@@@QAE@ABV0@@Z
	??0?$QList@VQSslError@@@@QAE@XZ
	??0?$QMap@VQString@@V1@@@QAE@ABV0@@Z
	??0?$QMap@VQString@@VQVariant@@@@QAE@ABV0@@Z
	??0?$QMap@VQString@@VQVariant@@@@QAE@XZ
	??0?$QMap@W4PluginCapability@PluginDataAPI@@V?$QMap@VQString@@VQVariant@@@@@@QAE@$$QAV0@@Z
	??0?$QMap@W4PluginCapability@PluginDataAPI@@V?$QMap@VQString@@VQVariant@@@@@@QAE@ABV0@@Z
	??0?$QMap@W4PluginCapability@PluginDataAPI@@V?$QMap@VQString@@VQVariant@@@@@@QAE@XZ
	??0?$QMultiMap@VQString@@V1@@@QAE@ABV0@@Z
	??0?$QPointer@VQNetworkReply@@@@QAE@XZ
	??0?$QSlotObject@P8PluginNetworkHelper@@AEXABV?$QList@VQSslError@@@@@ZU?$List@ABV?$QList@VQSslError@@@@@QtPrivate@@X@QtPrivate@@QAE@P8PluginNetworkHelper@@AEXABV?$QList@VQSslError@@@@@Z@Z
	??0?$QSlotObject@P8PluginNetworkHelper@@AEXW4NetworkError@QNetworkReply@@@ZU?$List@W4NetworkError@QNetworkReply@@@QtPrivate@@X@QtPrivate@@QAE@P8PluginNetworkHelper@@AEXW4NetworkError@QNetworkReply@@@Z@Z
	??0?$QSlotObject@P8PluginNetworkHelper@@AEXXZU?$List@$$V@QtPrivate@@X@QtPrivate@@QAE@P8PluginNetworkHelper@@AEXXZ@Z
	??0?$QVector@V?$QMultiMap@VQString@@V1@@@@@QAE@ABV0@@Z
	??0?$QWeakPointer@VQObject@@@@QAE@$$QAV0@@Z
	??0?$QWeakPointer@VQObject@@@@QAE@XZ
	??0?$_List_unchecked_const_iterator@V?$_List_val@U?$_List_simple_types@V?$basic_string@DU?$char_traits@D@std@@V?$allocator@D@2@@std@@@std@@@std@@U_Iterator_base0@2@@std@@QAE@PAU?$_List_node@V?$basic_string@DU?$char_traits@D@std@@V?$allocator@D@2@@std@@PAX@1@PBV?$_List_val@U?$_List_simple_types@V?$basic_string@DU?$char_traits@D@std@@V?$allocator@D@2@@std@@@std@@@1@@Z
	??0?$_List_unchecked_iterator@V?$_List_val@U?$_List_simple_types@V?$basic_string@DU?$char_traits@D@std@@V?$allocator@D@2@@std@@@std@@@std@@@std@@QAE@PAU?$_List_node@V?$basic_string@DU?$char_traits@D@std@@V?$allocator@D@2@@std@@PAX@1@PBV?$_List_val@U?$_List_simple_types@V?$basic_string@DU?$char_traits@D@std@@V?$allocator@D@2@@std@@@std@@@1@@Z
	??0?$_String_alloc@U?$_String_base_types@DV?$allocator@D@std@@@std@@@std@@QAE@XZ
	??0?$_String_val@U?$_Simple_types@D@std@@@std@@QAE@XZ
	??0?$allocator@D@std@@QAE@XZ
	??0?$atomic@H@std@@QAE@H@Z
	??0?$basic_string@DU?$char_traits@D@std@@V?$allocator@D@2@@std@@QAE@ABV01@@Z
	??0?$basic_string@DU?$char_traits@D@std@@V?$allocator@D@2@@std@@QAE@QBD@Z
	??0PluginDataAPI@@QAE@PAVLinphonePlugin@@PAXPAVQPluginLoader@@@Z
	??0PluginNetworkHelper@@QAE@XZ
	??0QAtomicInt@@QAE@H@Z
	??0QFlag@@QAE@H@Z
	??0QLatin1Char@@QAE@D@Z
	??0QSlotObjectBase@QtPrivate@@QAE@P6AXHPAV01@PAVQObject@@PAPAXPA_N@Z@Z
	??0_Bxty@?$_String_val@U?$_Simple_types@D@std@@@std@@QAE@XZ
	??0_Container_base12@std@@QAE@XZ
	??0_Container_proxy@std@@QAE@XZ
	??0const_iterator@?$QList@VQSslError@@@@QAE@PAUNode@1@@Z
	??0const_iterator@?$QMap@VQString@@VQVariant@@@@QAE@PBU?$QMapNode@VQString@@VQVariant@@@@@Z
	??0iterator@?$QList@VQVariant@@@@QAE@PAUNode@1@@Z
	??0iterator@?$QMap@VQString@@VQVariant@@@@QAE@PAU?$QMapNode@VQString@@VQVariant@@@@@Z
	??0iterator@?$QMap@W4PluginCapability@PluginDataAPI@@V?$QMap@VQString@@VQVariant@@@@@@QAE@PAU?$QMapNode@W4PluginCapability@PluginDataAPI@@V?$QMap@VQString@@VQVariant@@@@@@@Z
	??1?$QList@VQSslError@@@@QAE@XZ
	??1?$QList@VQVariant@@@@QAE@XZ
	??1?$QMap@VQString@@V1@@@QAE@XZ
	??1?$QMap@VQString@@VQVariant@@@@QAE@XZ
	??1?$QMap@W4PluginCapability@PluginDataAPI@@V?$QMap@VQString@@VQVariant@@@@@@QAE@XZ
	??1?$QMultiMap@VQString@@V1@@@QAE@XZ
	??1?$QPointer@VQNetworkReply@@@@QAE@XZ
	??1?$QSlotObject@P8PluginNetworkHelper@@AEXABV?$QList@VQSslError@@@@@ZU?$List@ABV?$QList@VQSslError@@@@@QtPrivate@@X@QtPrivate@@QAE@XZ
	??1?$QSlotObject@P8PluginNetworkHelper@@AEXW4NetworkError@QNetworkReply@@@ZU?$List@W4NetworkError@QNetworkReply@@@QtPrivate@@X@QtPrivate@@QAE@XZ
	??1?$QSlotObject@P8PluginNetworkHelper@@AEXXZU?$List@$$V@QtPrivate@@X@QtPrivate@@QAE@XZ
	??1?$QVector@V?$QMultiMap@VQString@@V1@@@@@QAE@XZ
	??1?$QWeakPointer@VQObject@@@@QAE@XZ
	??1?$_Compressed_pair@V?$allocator@D@std@@V?$_String_val@U?$_Simple_types@D@std@@@2@$00@std@@QAE@XZ
	??1?$_List_alloc@U?$_List_base_types@V?$basic_string@DU?$char_traits@D@std@@V?$allocator@D@2@@std@@V?$allocator@V?$basic_string@DU?$char_traits@D@std@@V?$allocator@D@2@@std@@@2@@std@@@std@@QAE@XZ
	??1?$_List_buy@V?$basic_string@DU?$char_traits@D@std@@V?$allocator@D@2@@std@@V?$allocator@V?$basic_string@DU?$char_traits@D@std@@V?$allocator@D@2@@std@@@2@@std@@QAE@XZ
	??1?$_String_alloc@U?$_String_base_types@DV?$allocator@D@std@@@std@@@std@@QAE@XZ
	??1?$_String_val@U?$_Simple_types@D@std@@@std@@QAE@XZ
	??1?$basic_string@DU?$char_traits@D@std@@V?$allocator@D@2@@std@@QAE@XZ
	??1?$list@V?$basic_string@DU?$char_traits@D@std@@V?$allocator@D@2@@std@@V?$allocator@V?$basic_string@DU?$char_traits@D@std@@V?$allocator@D@2@@std@@@2@@std@@QAE@XZ
	??1?$shared_ptr@VConfig@linphone@@@std@@QAE@XZ
	??1ExternalRefCountData@QtSharedPointer@@QAE@XZ
	??1PluginDataAPI@@UAE@XZ
	??1PluginNetworkHelper@@UAE@XZ
	??1QSlotObjectBase@QtPrivate@@IAE@XZ
	??1_Bxty@?$_String_val@U?$_Simple_types@D@std@@@std@@QAE@XZ
	??2@YAPAXIPAX@Z
	??3ExternalRefCountData@QtSharedPointer@@SAXPAX@Z
	??4?$QMap@VQString@@VQVariant@@@@QAEAAV0@ABV0@@Z
	??4?$QPointer@VQNetworkReply@@@@QAEAAV0@PAVQNetworkReply@@@Z
	??4?$QWeakPointer@VQObject@@@@QAEAAV0@$$QAV0@@Z
	??8?$QMap@VQString@@VQVariant@@@@QBE_NABV0@@Z
	??8?$_List_unchecked_const_iterator@V?$_List_val@U?$_List_simple_types@V?$basic_string@DU?$char_traits@D@std@@V?$allocator@D@2@@std@@@std@@@std@@U_Iterator_base0@2@@std@@QBE_NABV01@@Z
	??8@YA_NABVQByteArray@@0@Z
	??9?$QMap@VQString@@VQVariant@@@@QBE_NABV0@@Z
	??9?$_List_unchecked_const_iterator@V?$_List_val@U?$_List_simple_types@V?$basic_string@DU?$char_traits@D@std@@V?$allocator@D@2@@std@@@std@@@std@@U_Iterator_base0@2@@std@@QBE_NABV01@@Z
	??9const_iterator@?$QList@VQSslError@@@@QBE_NABV01@@Z
	??9const_iterator@?$QMap@VQString@@VQVariant@@@@QBE_NABV01@@Z
	??9iterator@?$QList@VQVariant@@@@QBE_NABV01@@Z
	??9iterator@?$QMap@VQString@@VQVariant@@@@QBE_NABV01@@Z
	??9iterator@?$QMap@W4PluginCapability@PluginDataAPI@@V?$QMap@VQString@@VQVariant@@@@@@QBE_NABV01@@Z
	??A?$QMap@VQString@@VQVariant@@@@QAEAAVQVariant@@ABVQString@@@Z
	??A?$QMap@W4PluginCapability@PluginDataAPI@@V?$QMap@VQString@@VQVariant@@@@@@QAEAAV?$QMap@VQString@@VQVariant@@@@ABW4PluginCapability@PluginDataAPI@@@Z
	??BQFlag@@QBEHXZ
	??C?$QPointer@VQNetworkReply@@@@QBEPAVQNetworkReply@@XZ
	??C?$QScopedPointer@VQObjectData@@U?$QScopedPointerDeleter@VQObjectData@@@@@@QBEPAVQObjectData@@XZ
	??D?$_List_unchecked_const_iterator@V?$_List_val@U?$_List_simple_types@V?$basic_string@DU?$char_traits@D@std@@V?$allocator@D@2@@std@@@std@@@std@@U_Iterator_base0@2@@std@@QBEABV?$basic_string@DU?$char_traits@D@std@@V?$allocator@D@2@@1@XZ
	??D?$_List_unchecked_iterator@V?$_List_val@U?$_List_simple_types@V?$basic_string@DU?$char_traits@D@std@@V?$allocator@D@2@@std@@@std@@@std@@@std@@QBEAAV?$basic_string@DU?$char_traits@D@std@@V?$allocator@D@2@@1@XZ
	??Dconst_iterator@?$QList@VQSslError@@@@QBEABVQSslError@@XZ
	??Diterator@?$QList@VQVariant@@@@QBEAAVQVariant@@XZ
	??Diterator@?$QMap@VQString@@VQVariant@@@@QBEAAVQVariant@@XZ
	??Diterator@?$QMap@W4PluginCapability@PluginDataAPI@@V?$QMap@VQString@@VQVariant@@@@@@QBEAAV?$QMap@VQString@@VQVariant@@@@XZ
	??E?$_List_unchecked_const_iterator@V?$_List_val@U?$_List_simple_types@V?$basic_string@DU?$char_traits@D@std@@V?$allocator@D@2@@std@@@std@@@std@@U_Iterator_base0@2@@std@@QAEAAV01@XZ
	??E?$_List_unchecked_iterator@V?$_List_val@U?$_List_simple_types@V?$basic_string@DU?$char_traits@D@std@@V?$allocator@D@2@@std@@@std@@@std@@@std@@QAEAAV01@XZ
	??E_Atomic_int@std@@QAEHXZ
	??Econst_iterator@?$QList@VQSslError@@@@QAEAAV01@XZ
	??Econst_iterator@?$QMap@VQString@@VQVariant@@@@QAEAAV01@XZ
	??Eiterator@?$QList@VQVariant@@@@QAEAAV01@XZ
	??Eiterator@?$QMap@VQString@@VQVariant@@@@QAEAAV01@XZ
	??Eiterator@?$QMap@W4PluginCapability@PluginDataAPI@@V?$QMap@VQString@@VQVariant@@@@@@QAEAAV01@XZ
	??F_Atomic_int@std@@QAEHXZ
	??H@YA?BVQString@@ABV0@0@Z
	??H@YA?BVQString@@ABV0@PBD@Z
	??R<lambda_9366063389c5f42a00a5088cf24e69de>@@QBEXQADIQBD@Z
	??_5?$QFlags@W4TypeFlag@QMetaType@@@@QAEAAV0@W4TypeFlag@QMetaType@@@Z
	??_7PluginDataAPI@@6B@
	??_7PluginNetworkHelper@@6B@
	?Construct@?$QMetaTypeFunctionHelper@V?$QList@VQSslError@@@@$00@QtMetaTypePrivate@@SAPAXPAXPBX@Z
	?Construct@?$QMetaTypeFunctionHelper@W4NetworkError@QNetworkReply@@$00@QtMetaTypePrivate@@SAPAXPAXPBX@Z
	?Destruct@?$QMetaTypeFunctionHelper@V?$QList@VQSslError@@@@$00@QtMetaTypePrivate@@SAXPAX@Z
	?Destruct@?$QMetaTypeFunctionHelper@W4NetworkError@QNetworkReply@@$00@QtMetaTypePrivate@@SAXPAX@Z
	?_Adjust_manually_vector_aligned@std@@YAXAAPAXAAI@Z
	?_Adopt@_Iterator_base0@std@@QAEXPBX@Z
	?_Alloc_proxy@?$_String_alloc@U?$_String_base_types@DV?$allocator@D@std@@@std@@@std@@QAEXXZ
	?_Allocate@_Default_allocate_traits@std@@SAPAXI@Z
	?_Atomic_fetch_add_4@std@@YAKPCKKW4memory_order@1@@Z
	?_Atomic_fetch_sub_4@std@@YAKPCKKW4memory_order@1@@Z
	?_Atomic_load_4@std@@YAKPCKW4memory_order@1@@Z
	?_Atomic_store_4@std@@YAXPCKKW4memory_order@1@@Z
	?_Calculate_growth@?$basic_string@DU?$char_traits@D@std@@V?$allocator@D@2@@std@@QBEII@Z
	?_Clrcont@_Iterator_base12@std@@QAEXXZ
	?_Construct_lv_contents@?$basic_string@DU?$char_traits@D@std@@V?$allocator@D@2@@std@@QAEXABV12@@Z
	?_Decref@?$_Ptr_base@VConfig@linphone@@@std@@IAEXXZ
	?_Decref@_Ref_count_base@std@@QAEXXZ
	?_Decwref@_Ref_count_base@std@@QAEXXZ
	?_Fetch_add_acquire_4@std@@YAKPCKK@Z
	?_Fetch_add_relaxed_4@std@@YAKPCKK@Z
	?_Fetch_add_release_4@std@@YAKPCKK@Z
	?_Fetch_add_seq_cst_4@std@@YAKPCKK@Z
	?_Free_proxy@?$_List_alloc@U?$_List_base_types@V?$basic_string@DU?$char_traits@D@std@@V?$allocator@D@2@@std@@V?$allocator@V?$basic_string@DU?$char_traits@D@std@@V?$allocator@D@2@@std@@@2@@std@@@std@@QAEXXZ
	?_Free_proxy@?$_String_alloc@U?$_String_base_types@DV?$allocator@D@std@@@std@@@std@@QAEXXZ
	?_Freeheadnode@?$_List_alloc@U?$_List_base_types@V?$basic_string@DU?$char_traits@D@std@@V?$allocator@D@2@@std@@V?$allocator@V?$basic_string@DU?$char_traits@D@std@@V?$allocator@D@2@@std@@@2@@std@@@std@@QAEXPAU?$_List_node@V?$basic_string@DU?$char_traits@D@std@@V?$allocator@D@2@@std@@PAX@2@@Z
	?_Freenode@?$_List_buy@V?$basic_string@DU?$char_traits@D@std@@V?$allocator@D@2@@std@@V?$allocator@V?$basic_string@DU?$char_traits@D@std@@V?$allocator@D@2@@std@@@2@@std@@QAEXPAU?$_List_node@V?$basic_string@DU?$char_traits@D@std@@V?$allocator@D@2@@std@@PAX@2@@Z
	?_Get_data@?$_List_alloc@U?$_List_base_types@V?$basic_string@DU?$char_traits@D@std@@V?$allocator@D@2@@std@@V?$allocator@V?$basic_string@DU?$char_traits@D@std@@V?$allocator@D@2@@std@@@2@@std@@@std@@QAEAAV?$_List_val@U?$_List_simple_types@V?$basic_string@DU?$char_traits@D@std@@V?$allocator@D@2@@std@@@std@@@2@XZ
	?_Get_data@?$_List_alloc@U?$_List_base_types@V?$basic_string@DU?$char_traits@D@std@@V?$allocator@D@2@@std@@V?$allocator@V?$basic_string@DU?$char_traits@D@std@@V?$allocator@D@2@@std@@@2@@std@@@std@@QBEABV?$_List_val@U?$_List_simple_types@V?$basic_string@DU?$char_traits@D@std@@V?$allocator@D@2@@std@@@std@@@2@XZ
	?_Get_data@?$_String_alloc@U?$_String_base_types@DV?$allocator@D@std@@@std@@@std@@QAEAAV?$_String_val@U?$_Simple_types@D@std@@@2@XZ
	?_Get_data@?$_String_alloc@U?$_String_base_types@DV?$allocator@D@std@@@std@@@std@@QBEABV?$_String_val@U?$_Simple_types@D@std@@@2@XZ
	?_Get_first@?$_Compressed_pair@V?$allocator@D@std@@V?$_String_val@U?$_Simple_types@D@std@@@2@$00@std@@QAEAAV?$allocator@D@2@XZ
	?_Get_first@?$_Compressed_pair@V?$allocator@D@std@@V?$_String_val@U?$_Simple_types@D@std@@@2@$00@std@@QBEABV?$allocator@D@2@XZ
	?_Get_first@?$_Compressed_pair@V?$allocator@U?$_List_node@V?$basic_string@DU?$char_traits@D@std@@V?$allocator@D@2@@std@@PAX@std@@@std@@V?$_List_val@U?$_List_simple_types@V?$basic_string@DU?$char_traits@D@std@@V?$allocator@D@2@@std@@@std@@@2@$00@std@@QAEAAV?$allocator@U?$_List_node@V?$basic_string@DU?$char_traits@D@std@@V?$allocator@D@2@@std@@PAX@std@@@2@XZ
	?_Get_second@?$_Compressed_pair@V?$allocator@D@std@@V?$_String_val@U?$_Simple_types@D@std@@@2@$00@std@@QAEAAV?$_String_val@U?$_Simple_types@D@std@@@2@XZ
	?_Get_second@?$_Compressed_pair@V?$allocator@D@std@@V?$_String_val@U?$_Simple_types@D@std@@@2@$00@std@@QBEABV?$_String_val@U?$_Simple_types@D@std@@@2@XZ
	?_Get_second@?$_Compressed_pair@V?$allocator@U?$_List_node@V?$basic_string@DU?$char_traits@D@std@@V?$allocator@D@2@@std@@PAX@std@@@std@@V?$_List_val@U?$_List_simple_types@V?$basic_string@DU?$char_traits@D@std@@V?$allocator@D@2@@std@@@std@@@2@$00@std@@QAEAAV?$_List_val@U?$_List_simple_types@V?$basic_string@DU?$char_traits@D@std@@V?$allocator@D@2@@std@@@std@@@2@XZ
	?_Get_second@?$_Compressed_pair@V?$allocator@U?$_List_node@V?$basic_string@DU?$char_traits@D@std@@V?$allocator@D@2@@std@@PAX@std@@@std@@V?$_List_val@U?$_List_simple_types@V?$basic_string@DU?$char_traits@D@std@@V?$allocator@D@2@@std@@@std@@@2@$00@std@@QBEABV?$_List_val@U?$_List_simple_types@V?$basic_string@DU?$char_traits@D@std@@V?$allocator@D@2@@std@@@std@@@2@XZ
	?_Getal@?$_List_alloc@U?$_List_base_types@V?$basic_string@DU?$char_traits@D@std@@V?$allocator@D@2@@std@@V?$allocator@V?$basic_string@DU?$char_traits@D@std@@V?$allocator@D@2@@std@@@2@@std@@@std@@QAEAAV?$allocator@U?$_List_node@V?$basic_string@DU?$char_traits@D@std@@V?$allocator@D@2@@std@@PAX@std@@@2@XZ
	?_Getal@?$_String_alloc@U?$_String_base_types@DV?$allocator@D@std@@@std@@@std@@QAEAAV?$allocator@D@2@XZ
	?_Getal@?$_String_alloc@U?$_String_base_types@DV?$allocator@D@std@@@std@@@std@@QBEABV?$allocator@D@2@XZ
	?_Getpfirst@?$_List_alloc@U?$_List_base_types@V?$basic_string@DU?$char_traits@D@std@@V?$allocator@D@2@@std@@V?$allocator@V?$basic_string@DU?$char_traits@D@std@@V?$allocator@D@2@@std@@@2@@std@@@std@@QBEPAPAU_Iterator_base12@2@XZ
	?_Getpfirst@_Container_base12@std@@QBEPAPAU_Iterator_base12@2@XZ
	?_Getpnext@_Iterator_base12@std@@QAEPAPAU12@XZ
	?_Large_string_engaged@?$_String_val@U?$_Simple_types@D@std@@@std@@QBE_NXZ
	?_Load_acquire_4@std@@YAKPCK@Z
	?_Load_relaxed_4@std@@YAKPCK@Z
	?_Load_seq_cst_4@std@@YAKPCK@Z
	?_Myhead@?$_List_alloc@U?$_List_base_types@V?$basic_string@DU?$char_traits@D@std@@V?$allocator@D@2@@std@@V?$allocator@V?$basic_string@DU?$char_traits@D@std@@V?$allocator@D@2@@std@@@2@@std@@@std@@QAEAAPAU?$_List_node@V?$basic_string@DU?$char_traits@D@std@@V?$allocator@D@2@@std@@PAX@2@XZ
	?_Myproxy@?$_List_alloc@U?$_List_base_types@V?$basic_string@DU?$char_traits@D@std@@V?$allocator@D@2@@std@@V?$allocator@V?$basic_string@DU?$char_traits@D@std@@V?$allocator@D@2@@std@@@2@@std@@@std@@QAEAAPAU_Container_proxy@2@XZ
	?_Myproxy@?$_String_alloc@U?$_String_base_types@DV?$allocator@D@std@@@std@@@std@@QAEAAPAU_Container_proxy@2@XZ
	?_Myptr@?$_String_val@U?$_Simple_types@D@std@@@std@@QAEPADXZ
	?_Myptr@?$_String_val@U?$_Simple_types@D@std@@@std@@QBEPBDXZ
	?_Mysize@?$_List_alloc@U?$_List_base_types@V?$basic_string@DU?$char_traits@D@std@@V?$allocator@D@2@@std@@V?$allocator@V?$basic_string@DU?$char_traits@D@std@@V?$allocator@D@2@@std@@@2@@std@@@std@@QAEAAIXZ
	?_Orphan_all@?$_List_alloc@U?$_List_base_types@V?$basic_string@DU?$char_traits@D@std@@V?$allocator@D@2@@std@@V?$allocator@V?$basic_string@DU?$char_traits@D@std@@V?$allocator@D@2@@std@@@2@@std@@@std@@QAEXXZ
	?_Orphan_all@?$_String_alloc@U?$_String_base_types@DV?$allocator@D@std@@@std@@@std@@QAEXXZ
	?_Orphan_all@_Container_base12@std@@QAEXXZ
	?_Orphan_ptr@?$list@V?$basic_string@DU?$char_traits@D@std@@V?$allocator@D@2@@std@@V?$allocator@V?$basic_string@DU?$char_traits@D@std@@V?$allocator@D@2@@std@@@2@@std@@QAEXPAU?$_List_node@V?$basic_string@DU?$char_traits@D@std@@V?$allocator@D@2@@std@@PAX@2@@Z
	?_Store_relaxed_4@std@@YAXPCKK@Z
	?_Store_release_4@std@@YAXPCKK@Z
	?_Store_seq_cst_4@std@@YAXPCKK@Z
	?_Tidy@?$list@V?$basic_string@DU?$char_traits@D@std@@V?$allocator@D@2@@std@@V?$allocator@V?$basic_string@DU?$char_traits@D@std@@V?$allocator@D@2@@std@@@2@@std@@QAEXXZ
	?_Tidy_deallocate@?$basic_string@DU?$char_traits@D@std@@V?$allocator@D@2@@std@@QAEXXZ
	?_Tidy_init@?$basic_string@DU?$char_traits@D@std@@V?$allocator@D@2@@std@@QAEXXZ
	?_Unchecked_begin@?$list@V?$basic_string@DU?$char_traits@D@std@@V?$allocator@D@2@@std@@V?$allocator@V?$basic_string@DU?$char_traits@D@std@@V?$allocator@D@2@@std@@@2@@std@@QAE?AV?$_List_unchecked_iterator@V?$_List_val@U?$_List_simple_types@V?$basic_string@DU?$char_traits@D@std@@V?$allocator@D@2@@std@@@std@@@std@@@2@XZ
	?_Unchecked_end@?$list@V?$basic_string@DU?$char_traits@D@std@@V?$allocator@D@2@@std@@V?$allocator@V?$basic_string@DU?$char_traits@D@std@@V?$allocator@D@2@@std@@@2@@std@@QAE?AV?$_List_unchecked_iterator@V?$_List_val@U?$_List_simple_types@V?$basic_string@DU?$char_traits@D@std@@V?$allocator@D@2@@std@@@std@@@std@@@2@XZ
	?_Xlen@?$basic_string@DU?$char_traits@D@std@@V?$allocator@D@2@@std@@SAXXZ
	?__empty_global_delete@@YAXPAX@Z
	?__empty_global_delete@@YAXPAXI@Z
	?allocate@?$QTypedArrayData@V?$QMultiMap@VQString@@V1@@@@@SAPAU1@IV?$QFlags@W4AllocationOption@QArrayData@@@@@Z
	?allocate@?$allocator@D@std@@QAEPADI@Z
	?allocate@?$allocator@U_Container_proxy@std@@@std@@QAEPAU_Container_proxy@2@I@Z
	?asString@QtPrivate@@YA$$QAVQString@@$$QAV2@@Z
	?asString@QtPrivate@@YAABVQString@@ABV2@@Z
	?assign@?$basic_string@DU?$char_traits@D@std@@V?$allocator@D@2@@std@@QAEAAV12@QBD@Z
	?assign@?$basic_string@DU?$char_traits@D@std@@V?$allocator@D@2@@std@@QAEAAV12@QBDI@Z
	?assign@?$char_traits@D@std@@SAXAADABD@Z
	?atomic_fetch_add@std@@YAHPAU_Atomic_int@1@H@Z
	?atomic_fetch_add_explicit@std@@YAHPAU_Atomic_int@1@HW4memory_order@1@@Z
	?atomic_fetch_sub@std@@YAHPAU_Atomic_int@1@H@Z
	?atomic_fetch_sub_explicit@std@@YAHPAU_Atomic_int@1@HW4memory_order@1@@Z
	?atomic_load_explicit@std@@YAHPBU_Atomic_int@1@W4memory_order@1@@Z
	?atomic_store_explicit@std@@YAXPAU_Atomic_int@1@HW4memory_order@1@@Z
	?begin@?$QList@VQSslError@@@@QBE?AVconst_iterator@1@XZ
	?begin@?$QList@VQVariant@@@@QAE?AViterator@1@XZ
	?begin@?$QMap@VQString@@VQVariant@@@@QAE?AViterator@1@XZ
	?begin@?$QMap@VQString@@VQVariant@@@@QBE?AVconst_iterator@1@XZ
	?begin@?$QMap@W4PluginCapability@PluginDataAPI@@V?$QMap@VQString@@VQVariant@@@@@@QAE?AViterator@1@XZ
	?begin@?$QMapData@VQString@@VQVariant@@@@QAEPAU?$QMapNode@VQString@@VQVariant@@@@XZ
	?begin@?$QMapData@W4PluginCapability@PluginDataAPI@@V?$QMap@VQString@@VQVariant@@@@@@QAEPAU?$QMapNode@W4PluginCapability@PluginDataAPI@@V?$QMap@VQString@@VQVariant@@@@@@XZ
	?begin@?$QTypedArrayData@V?$QMultiMap@VQString@@V1@@@@@QAEPAV?$QMultiMap@VQString@@V1@@@PAV2@@Z
	?c_str@?$basic_string@DU?$char_traits@D@std@@V?$allocator@D@2@@std@@QBEPBDXZ
	?call@?$FunctorCall@U?$IndexesList@$0A@@QtPrivate@@U?$List@ABV?$QList@VQSslError@@@@@2@XP8PluginNetworkHelper@@AEXABV?$QList@VQSslError@@@@@Z@QtPrivate@@SAXP8PluginNetworkHelper@@AEXABV?$QList@VQSslError@@@@@ZPAV3@PAPAX@Z
	?call@?$FunctorCall@U?$IndexesList@$0A@@QtPrivate@@U?$List@W4NetworkError@QNetworkReply@@@2@XP8PluginNetworkHelper@@AEXW4NetworkError@QNetworkReply@@@Z@QtPrivate@@SAXP8PluginNetworkHelper@@AEXW4NetworkError@QNetworkReply@@@ZPAV3@PAPAX@Z
	?call@?$FunctorCall@U?$IndexesList@$S@QtPrivate@@U?$List@$$V@2@XP8PluginNetworkHelper@@AEXXZ@QtPrivate@@SAXP8PluginNetworkHelper@@AEXXZPAV3@PAPAX@Z
	?cleanAllConfigurations@PluginDataAPI@@UAEXXZ
	?clear@?$list@V?$basic_string@DU?$char_traits@D@std@@V?$allocator@D@2@@std@@V?$allocator@V?$basic_string@DU?$char_traits@D@std@@V?$allocator@D@2@@std@@@2@@std@@QAEXXZ
	?contains@?$QMap@VQString@@VQVariant@@@@QBE_NABVQString@@@Z
	?copy@?$QMapNode@VQString@@V1@@@QBEPAU1@PAU?$QMapData@VQString@@V1@@@@Z
	?copy@?$QMapNode@VQString@@VQVariant@@@@QBEPAU1@PAU?$QMapData@VQString@@VQVariant@@@@@Z
	?copy@?$QMapNode@W4PluginCapability@PluginDataAPI@@V?$QMap@VQString@@VQVariant@@@@@@QBEPAU1@PAU?$QMapData@W4PluginCapability@PluginDataAPI@@V?$QMap@VQString@@VQVariant@@@@@@@Z
	?copy@?$char_traits@D@std@@SAPADQADQBDI@Z
	?copyConstruct@?$QVector@V?$QMultiMap@VQString@@V1@@@@@AAEXPBV?$QMultiMap@VQString@@V1@@@0PAV2@@Z
	?create@?$QMapData@VQString@@V1@@@SAPAU1@XZ
	?create@?$QMapData@VQString@@VQVariant@@@@SAPAU1@XZ
	?create@?$QMapData@W4PluginCapability@PluginDataAPI@@V?$QMap@VQString@@VQVariant@@@@@@SAPAU1@XZ
	?createNode@?$QMapData@VQString@@V1@@@QAEPAU?$QMapNode@VQString@@V1@@@ABVQString@@0PAU2@_N@Z
	?createNode@?$QMapData@VQString@@VQVariant@@@@QAEPAU?$QMapNode@VQString@@VQVariant@@@@ABVQString@@ABVQVariant@@PAU2@_N@Z
	?createNode@?$QMapData@W4PluginCapability@PluginDataAPI@@V?$QMap@VQString@@VQVariant@@@@@@QAEPAU?$QMapNode@W4PluginCapability@PluginDataAPI@@V?$QMap@VQString@@VQVariant@@@@@@ABW4PluginCapability@PluginDataAPI@@ABV?$QMap@VQString@@VQVariant@@@@PAU2@_N@Z
	?data@?$QPointer@VQNetworkReply@@@@QBEPAVQNetworkReply@@XZ
	?data@?$QTypedArrayData@V?$QMultiMap@VQString@@V1@@@@@QAEPAV?$QMultiMap@VQString@@V1@@@XZ
	?data@?$QWeakPointer@VQObject@@@@QBEPAVQObject@@XZ
	?dataReceived@PluginDataAPI@@QAEXABW4PluginCapability@1@V?$QVector@V?$QMultiMap@VQString@@V1@@@@@@Z
	?data_ptr@?$QStaticStringData@$0BB@@@QBEPAU?$QTypedArrayData@G@@XZ
	?data_ptr@?$QStaticStringData@$0BL@@@QBEPAU?$QTypedArrayData@G@@XZ
	?dealloc@?$QList@VQSslError@@@@AAEXPAUData@QListData@@@Z
	?dealloc@?$QList@VQVariant@@@@AAEXPAUData@QListData@@@Z
	?deallocate@?$QTypedArrayData@V?$QMultiMap@VQString@@V1@@@@@SAXPAUQArrayData@@@Z
	?deallocate@?$_Default_allocator_traits@V?$allocator@U?$_List_node@V?$basic_string@DU?$char_traits@D@std@@V?$allocator@D@2@@std@@PAX@std@@@std@@@std@@SAXAAV?$allocator@U?$_List_node@V?$basic_string@DU?$char_traits@D@std@@V?$allocator@D@2@@std@@PAX@std@@@2@QAU?$_List_node@V?$basic_string@DU?$char_traits@D@std@@V?$allocator@D@2@@std@@PAX@2@I@Z
	?deallocate@?$_Default_allocator_traits@V?$allocator@U_Container_proxy@std@@@std@@@std@@SAXAAV?$allocator@U_Container_proxy@std@@@2@QAU_Container_proxy@2@I@Z
	?deallocate@?$allocator@D@std@@QAEXQADI@Z
	?deref@?$QBasicAtomicInteger@H@@QAE_NXZ
	?deref@RefCount@QtPrivate@@QAE_NXZ
	?destroy@?$QMapData@VQString@@V1@@@QAEXXZ
	?destroy@?$QMapData@VQString@@VQVariant@@@@QAEXXZ
	?destroy@?$QMapData@W4PluginCapability@PluginDataAPI@@V?$QMap@VQString@@VQVariant@@@@@@QAEXXZ
	?destroySubTree@?$QMapNode@VQString@@V1@@@QAEXXZ
	?destroySubTree@?$QMapNode@VQString@@VQVariant@@@@QAEXXZ
	?destroySubTree@?$QMapNode@W4PluginCapability@PluginDataAPI@@V?$QMap@VQString@@VQVariant@@@@@@QAEXXZ
	?destruct@?$QVector@V?$QMultiMap@VQString@@V1@@@@@AAEXPAV?$QMultiMap@VQString@@V1@@@0@Z
	?detach@?$QList@VQVariant@@@@QAEXXZ
	?detach@?$QMap@VQString@@VQVariant@@@@QAEXXZ
	?detach@?$QMap@W4PluginCapability@PluginDataAPI@@V?$QMap@VQString@@VQVariant@@@@@@QAEXXZ
	?detach_helper@?$QList@VQVariant@@@@AAEXH@Z
	?detach_helper@?$QList@VQVariant@@@@AAEXXZ
	?detach_helper@?$QMap@VQString@@VQVariant@@@@AAEXXZ
	?detach_helper@?$QMap@W4PluginCapability@PluginDataAPI@@V?$QMap@VQString@@VQVariant@@@@@@AAEXXZ
	?doDestroySubTree@?$QMapNode@VQString@@V1@@@AAEXU?$integral_constant@_N$00@std@@@Z
	?doDestroySubTree@?$QMapNode@VQString@@VQVariant@@@@AAEXU?$integral_constant@_N$00@std@@@Z
	?doDestroySubTree@?$QMapNode@W4PluginCapability@PluginDataAPI@@V?$QMap@VQString@@VQVariant@@@@@@AAEXU?$integral_constant@_N$00@std@@@Z
	?end@?$QList@VQSslError@@@@QBE?AVconst_iterator@1@XZ
	?end@?$QList@VQVariant@@@@QAE?AViterator@1@XZ
	?end@?$QMap@VQString@@VQVariant@@@@QAE?AViterator@1@XZ
	?end@?$QMap@VQString@@VQVariant@@@@QBE?AVconst_iterator@1@XZ
	?end@?$QMap@W4PluginCapability@PluginDataAPI@@V?$QMap@VQString@@VQVariant@@@@@@QAE?AViterator@1@XZ
	?end@?$QMapData@VQString@@VQVariant@@@@QAEPAU?$QMapNode@VQString@@VQVariant@@@@XZ
	?end@?$QMapData@W4PluginCapability@PluginDataAPI@@V?$QMap@VQString@@VQVariant@@@@@@QAEPAU?$QMapNode@W4PluginCapability@PluginDataAPI@@V?$QMap@VQString@@VQVariant@@@@@@XZ
	?end@?$QTypedArrayData@V?$QMultiMap@VQString@@V1@@@@@QAEPAV?$QMultiMap@VQString@@V1@@@PAV2@@Z
	?findNode@?$QMapData@VQString@@VQVariant@@@@QBEPAU?$QMapNode@VQString@@VQVariant@@@@ABVQString@@@Z
	?findNode@?$QMapData@W4PluginCapability@PluginDataAPI@@V?$QMap@VQString@@VQVariant@@@@@@QBEPAU?$QMapNode@W4PluginCapability@PluginDataAPI@@V?$QMap@VQString@@VQVariant@@@@@@ABW4PluginCapability@PluginDataAPI@@@Z
	?freeData@?$QVector@V?$QMultiMap@VQString@@V1@@@@@AAEXPAU?$QTypedArrayData@V?$QMultiMap@VQString@@V1@@@@@@Z
	?get@?$_Ptr_base@VConfig@linphone@@@std@@IBEPAVConfig@linphone@@XZ
	?getInputFields@PluginDataAPI@@UAE?AV?$QMap@W4PluginCapability@PluginDataAPI@@V?$QMap@VQString@@VQVariant@@@@@@ABW4PluginCapability@1@@Z
	?getInputFieldsToSave@PluginDataAPI@@UAE?AV?$QMap@W4PluginCapability@PluginDataAPI@@V?$QMap@VQString@@VQVariant@@@@@@ABW4PluginCapability@1@@Z
	?getPluginLoader@PluginDataAPI@@QAEPAVQPluginLoader@@XZ
	?handleError@PluginNetworkHelper@@AAEXW4NetworkError@QNetworkReply@@@Z
	?handleFinished@PluginNetworkHelper@@AAEXXZ
	?handleReadyData@PluginNetworkHelper@@AAEXXZ
	?handleSslErrors@PluginNetworkHelper@@AAEXABV?$QList@VQSslError@@@@@Z
	?impl@?$QSlotObject@P8PluginNetworkHelper@@AEXABV?$QList@VQSslError@@@@@ZU?$List@ABV?$QList@VQSslError@@@@@QtPrivate@@X@QtPrivate@@CAXHPAVQSlotObjectBase@2@PAVQObject@@PAPAXPA_N@Z
	?impl@?$QSlotObject@P8PluginNetworkHelper@@AEXW4NetworkError@QNetworkReply@@@ZU?$List@W4NetworkError@QNetworkReply@@@QtPrivate@@X@QtPrivate@@CAXHPAVQSlotObjectBase@2@PAVQObject@@PAPAXPA_N@Z
	?impl@?$QSlotObject@P8PluginNetworkHelper@@AEXXZU?$List@$$V@QtPrivate@@X@QtPrivate@@CAXHPAVQSlotObjectBase@2@PAVQObject@@PAPAXPA_N@Z
	?inputFieldsChanged@PluginDataAPI@@QAEXABW4PluginCapability@1@ABV?$QMap@VQString@@VQVariant@@@@@Z
	?insert@?$QMap@VQString@@VQVariant@@@@QAE?AViterator@1@ABVQString@@ABVQVariant@@@Z
	?insert@?$QMap@W4PluginCapability@PluginDataAPI@@V?$QMap@VQString@@VQVariant@@@@@@QAE?AViterator@1@ABW4PluginCapability@PluginDataAPI@@ABV?$QMap@VQString@@VQVariant@@@@@Z
	?isShared@RefCount@QtPrivate@@QBE_NXZ
	?isStatic@RefCount@QtPrivate@@QBE_NXZ
	?key@const_iterator@?$QMap@VQString@@VQVariant@@@@QBEABVQString@@XZ
	?key@iterator@?$QMap@VQString@@VQVariant@@@@QBEABVQString@@XZ
	?key@iterator@?$QMap@W4PluginCapability@PluginDataAPI@@V?$QMap@VQString@@VQVariant@@@@@@QBEABW4PluginCapability@PluginDataAPI@@XZ
	?leftNode@?$QMapNode@VQString@@V1@@@QBEPAU1@XZ
	?leftNode@?$QMapNode@VQString@@VQVariant@@@@QBEPAU1@XZ
	?leftNode@?$QMapNode@W4PluginCapability@PluginDataAPI@@V?$QMap@VQString@@VQVariant@@@@@@QBEPAU1@XZ
	?length@?$char_traits@D@std@@SAIQBD@Z
	?load@?$QBasicAtomicInteger@H@@QBEHXZ
	?load@_Atomic_int@std@@QBEHW4memory_order@2@@Z
	?loadAcquire@?$QBasicAtomicInteger@H@@QBEHXZ
	?loadConfiguration@PluginDataAPI@@UAEXABW4PluginCapability@1@@Z
	?lowerBound@?$QMapNode@VQString@@VQVariant@@@@QAEPAU1@ABVQString@@@Z
	?lowerBound@?$QMapNode@W4PluginCapability@PluginDataAPI@@V?$QMap@VQString@@VQVariant@@@@@@QAEPAU1@ABW4PluginCapability@PluginDataAPI@@@Z
	?max@?$numeric_limits@H@std@@SAHXZ
	?max_size@?$_Default_allocator_traits@V?$allocator@D@std@@@std@@SAIABV?$allocator@D@2@@Z
	?max_size@?$basic_string@DU?$char_traits@D@std@@V?$allocator@D@2@@std@@QBEIXZ
	?message@PluginDataAPI@@QAEXABW4QtMsgType@@ABVQString@@@Z
	?message@PluginNetworkHelper@@QAEXABW4QtMsgType@@ABVQString@@@Z
	?metaObject@PluginDataAPI@@UBEPBUQMetaObject@@XZ
	?metaObject@PluginNetworkHelper@@UBEPBUQMetaObject@@XZ
	?move@?$char_traits@D@std@@SAPADQADQBDI@Z
	?nextNode@?$QMapNode@VQString@@VQVariant@@@@QAEPAU1@XZ
	?nextNode@?$QMapNode@VQString@@VQVariant@@@@QBEPBU1@XZ
	?nextNode@?$QMapNode@W4PluginCapability@PluginDataAPI@@V?$QMap@VQString@@VQVariant@@@@@@QAEPAU1@XZ
	?node_copy@?$QList@VQSslError@@@@AAEXPAUNode@1@00@Z
	?node_copy@?$QList@VQVariant@@@@AAEXPAUNode@1@00@Z
	?node_destruct@?$QList@VQSslError@@@@AAEXPAUNode@1@0@Z
	?node_destruct@?$QList@VQVariant@@@@AAEXPAUNode@1@0@Z
	?qt_getEnumMetaObject@@YAPBUQMetaObject@@W4NetworkError@QNetworkReply@@@Z
	?qt_metacall@PluginDataAPI@@UAEHW4Call@QMetaObject@@HPAPAX@Z
	?qt_metacall@PluginNetworkHelper@@UAEHW4Call@QMetaObject@@HPAPAX@Z
	?qt_metacast@PluginDataAPI@@UAEPAXPBD@Z
	?qt_metacast@PluginNetworkHelper@@UAEPAXPBD@Z
	?qt_metatype_id@?$QMetaTypeId2@V?$QList@VQSslError@@@@@@SAHXZ
	?qt_metatype_id@?$QMetaTypeId2@W4NetworkError@QNetworkReply@@@@SAHXZ
	?qt_metatype_id@?$QMetaTypeId@V?$QList@VQSslError@@@@@@SAHXZ
	?qt_metatype_id@?$QMetaTypeId@W4NetworkError@QNetworkReply@@@@SAHXZ
	?qt_metatype_id@?$QMetaTypeIdHelper@ABV?$QList@VQSslError@@@@$00@QtPrivate@@SAHXZ
	?qt_metatype_id@?$QMetaTypeIdHelper@V?$QList@VQSslError@@@@$00@QtPrivate@@SAHXZ
	?qt_metatype_id@?$QMetaTypeIdHelper@W4NetworkError@QNetworkReply@@$00@QtPrivate@@SAHXZ
	?qt_static_metacall@PluginDataAPI@@CAXPAVQObject@@W4Call@QMetaObject@@HPAPAX@Z
	?qt_static_metacall@PluginNetworkHelper@@CAXPAVQObject@@W4Call@QMetaObject@@HPAPAX@Z
	?ref@?$QBasicAtomicInteger@H@@QAE_NXZ
	?ref@RefCount@QtPrivate@@QAE_NXZ
	?registerConverter@?$AssociativeContainerConverterHelper@V?$QList@VQSslError@@@@$0A@@QtPrivate@@SA_NH@Z
	?registerConverter@?$AssociativeContainerConverterHelper@W4NetworkError@QNetworkReply@@$0A@@QtPrivate@@SA_NH@Z
	?registerConverter@?$IsPair@V?$QList@VQSslError@@@@@QtPrivate@@SA_NH@Z
	?registerConverter@?$IsPair@W4NetworkError@QNetworkReply@@@QtPrivate@@SA_NH@Z
	?registerConverter@?$MetaTypeSmartPointerHelper@V?$QList@VQSslError@@@@X@QtPrivate@@SA_NH@Z
	?registerConverter@?$MetaTypeSmartPointerHelper@W4NetworkError@QNetworkReply@@X@QtPrivate@@SA_NH@Z
	?registerConverter@?$SequentialContainerConverterHelper@W4NetworkError@QNetworkReply@@$0A@@QtPrivate@@SA_NH@Z
	?registerConverter@?$ValueTypeIsMetaType@V?$QList@VQSslError@@@@$0A@@QtPrivate@@SA_NH@Z
	?request@PluginNetworkHelper@@QAEXXZ
	?requestFinished@PluginNetworkHelper@@QAEXABVQByteArray@@@Z
	?rightNode@?$QMapNode@VQString@@V1@@@QBEPAU1@XZ
	?rightNode@?$QMapNode@VQString@@VQVariant@@@@QBEPAU1@XZ
	?rightNode@?$QMapNode@W4PluginCapability@PluginDataAPI@@V?$QMap@VQString@@VQVariant@@@@@@QBEPAU1@XZ
	?root@?$QMapData@VQString@@V1@@@QBEPAU?$QMapNode@VQString@@V1@@@XZ
	?root@?$QMapData@VQString@@VQVariant@@@@QBEPAU?$QMapNode@VQString@@VQVariant@@@@XZ
	?root@?$QMapData@W4PluginCapability@PluginDataAPI@@V?$QMap@VQString@@VQVariant@@@@@@QBEPAU?$QMapNode@W4PluginCapability@PluginDataAPI@@V?$QMap@VQString@@VQVariant@@@@@@XZ
	?saveConfiguration@PluginDataAPI@@UAEXABW4PluginCapability@1@@Z
	?select_on_container_copy_construction@?$_Default_allocator_traits@V?$allocator@D@std@@@std@@SA?AV?$allocator@D@2@ABV32@@Z
	?setInputFields@PluginDataAPI@@UAEXABW4PluginCapability@1@ABV?$QMap@VQString@@VQVariant@@@@@Z
	?setSectionConfiguration@PluginDataAPI@@QAEXABVQString@@@Z
	?size@?$QMap@VQString@@VQVariant@@@@QBEHXZ
	?size@?$basic_string@DU?$char_traits@D@std@@V?$allocator@D@2@@std@@QBEIXZ
	?store@_Atomic_int@std@@QAEXHW4memory_order@2@@Z
	?storeRelease@?$QBasicAtomicInteger@H@@QAEXH@Z
	?swap@?$QMap@VQString@@VQVariant@@@@QAEXAAV1@@Z
	?swap@?$QWeakPointer@VQObject@@@@QAEXAAV1@@Z
	?t@Node@?$QList@VQSslError@@@@QAEAAVQSslError@@XZ
	?t@Node@?$QList@VQVariant@@@@QAEAAVQVariant@@XZ
	?tr@PluginDataAPI@@SA?AVQString@@PBD0H@Z
	?tr@PluginNetworkHelper@@SA?AVQString@@PBD0H@Z
	?trUtf8@PluginDataAPI@@SA?AVQString@@PBD0H@Z
	?trUtf8@PluginNetworkHelper@@SA?AVQString@@PBD0H@Z
	?types@?$ConnectionTypes@U?$List@$$V@QtPrivate@@$00@QtPrivate@@SAPBHXZ
	?types@?$ConnectionTypes@U?$List@ABV?$QList@VQSslError@@@@@QtPrivate@@$00@QtPrivate@@SAPBHXZ
	?types@?$ConnectionTypes@U?$List@W4NetworkError@QNetworkReply@@@QtPrivate@@$00@QtPrivate@@SAPBHXZ
	?value@?$MetaObjectForType@V?$QList@VQSslError@@@@X@QtPrivate@@SAPBUQMetaObject@@XZ
	?value@?$MetaObjectForType@W4NetworkError@QNetworkReply@@X@QtPrivate@@SAPBUQMetaObject@@XZ
	?value@const_iterator@?$QMap@VQString@@VQVariant@@@@QBEABVQVariant@@XZ
	?value@iterator@?$QMap@VQString@@VQVariant@@@@QBEAAVQVariant@@XZ
